; Function Attrs: mustprogress nofree norecurse nosync nounwind willreturn memory(argmem: read) uwtable
define dso_local i64 @ZSTD_ldm_getTableSize(ptr noundef readonly byval(%struct.ldmParams_t) align 8 captures(none) %0) local_unnamed_addr #1 {
  %2 = getelementptr inbounds nuw i8, ptr %0, i64 4
  %3 = load i32, ptr %2, align 4
  %4 = zext i32 %3 to i64
  %5 = getelementptr inbounds nuw i8, ptr %0, i64 8
  %6 = load i32, ptr %5, align 8
  %7 = tail call i32 @llvm.umin.i32(i32 %6, i32 %3)
  %8 = zext i32 %7 to i64
  %9 = sub nsw i64 %4, %8
  %10 = shl nuw i64 1, %9
  %11 = shl i64 8, %4
  %12 = add i64 %10, %11
  %13 = load i32, ptr %0, align 8
  %14 = icmp eq i32 %13, 1
  %15 = select i1 %14, i64 %12, i64 0
  ret i64 %15
}